target datalayout = "e-m:e-p270:32:32-p271:32:32-p272:64:64-i64:64-i128:128-f80:128-n8:16:32:64-S128"
target triple = "x86_64-pc-linux-gnu"

@fd_out = internal global i32 -1, align 4
@stdout = external global ptr, align 8

; Function Attrs: nounwind uwtable
define dso_local i32 @stop_column_filter() #0 {
  %1 = alloca i32, align 4
  %2 = load i32, ptr @fd_out, align 4, !tbaa !9
  %3 = icmp eq i32 %2, -1
  br i1 %3, label %4, label %5

4:                                                ; preds = %0
  store i32 -1, ptr %1, align 4
  br label %14

5:                                                ; preds = %0
  %6 = load ptr, ptr @stdout, align 8, !tbaa !53
  %7 = call i32 @fflush(ptr noundef %6)
  %8 = call i32 @close(i32 noundef 1)
  %9 = call i32 @finish_command(ptr noundef @column_process)
  %10 = load i32, ptr @fd_out, align 4, !tbaa !9
  %11 = call i32 @dup2(i32 noundef %10, i32 noundef 1) #9
  %12 = load i32, ptr @fd_out, align 4, !tbaa !9
  %13 = call i32 @close(i32 noundef %12)
  store i32 -1, ptr @fd_out, align 4, !tbaa !9
  store i32 0, ptr %1, align 4
  br label %14

14:                                               ; preds = %5, %4
  %15 = load i32, ptr %1, align 4
  ret i32 %15
}