; Function Attrs: nounwind uwtable
define dso_local range(i32 -1, 1) i32 @stop_column_filter() local_unnamed_addr #0 {
  %1 = load i32, ptr @fd_out, align 4, !tbaa !23
  %2 = icmp eq i32 %1, -1
  br i1 %2, label %12, label %3

3:                                                ; preds = %0
  %4 = load ptr, ptr @stdout, align 8, !tbaa !41
  %5 = tail call i32 @fflush(ptr noundef %4)
  %6 = tail call i32 @close(i32 noundef 1) #10
  %7 = tail call i32 @finish_command(ptr noundef nonnull @column_process) #10
  %8 = load i32, ptr @fd_out, align 4, !tbaa !23
  %9 = tail call i32 @dup2(i32 noundef %8, i32 noundef 1) #10
  %10 = load i32, ptr @fd_out, align 4, !tbaa !23
  %11 = tail call i32 @close(i32 noundef %10) #10
  store i32 -1, ptr @fd_out, align 4, !tbaa !23
  br label %12

12:                                               ; preds = %0, %3
  %.0 = phi i32 [ 0, %3 ], [ -1, %0 ]
  ret i32 %.0
}